; Function Attrs: mustprogress uwtable
define void @_ZN2cv21DetectionBasedTracker4stopEv(ptr noundef nonnull readonly align 8 captures(none) dereferenceable(152) %0) unnamed_addr #0 align 2 {
  %2 = getelementptr inbounds nuw i8, ptr %0, i64 8
  %3 = load ptr, ptr %2, align 8, !tbaa !128
  %.not = icmp eq ptr %3, null
  br i1 %.not, label %5, label %4

4:                                                ; preds = %1
  tail call void @_ZN2cv21DetectionBasedTracker21SeparateDetectionWork4stopEv(ptr noundef nonnull align 8 dereferenceable(320) %3)
  br label %5

5:                                                ; preds = %4, %1
  ret void
}